target datalayout = "e-m:e-p270:32:32-p271:32:32-p272:64:64-i64:64-i128:128-f80:128-n8:16:32:64-S128"
target triple = "x86_64-unknown-linux-gnu"

%"struct.icu_75::number::impl::ParsedPatternInfo" = type <{ %"class.icu_75::number::impl::AffixPatternProvider", %"class.icu_75::UnicodeString", %"struct.icu_75::number::impl::ParsedSubpatternInfo", %"struct.icu_75::number::impl::ParsedSubpatternInfo", %"struct.icu_75::number::impl::ParsedPatternInfo::ParserState", ptr, i8, [7 x i8] }>
%"class.icu_75::number::impl::AffixPatternProvider" = type { ptr }
%"class.icu_75::UnicodeString" = type { %"class.icu_75::Replaceable", %"union.icu_75::UnicodeString::StackBufferOrFields" }
%"class.icu_75::Replaceable" = type { %"class.icu_75::UObject" }
%"class.icu_75::UObject" = type { ptr }
%"union.icu_75::UnicodeString::StackBufferOrFields" = type { %struct.anon.0, [32 x i8] }
%struct.anon.0 = type { i16, i32, i32, ptr }
%"struct.icu_75::number::impl::ParsedSubpatternInfo" = type { i64, i32, i32, i32, i32, i32, i32, i32, i32, i8, i32, i8, i32, %"class.icu_75::number::impl::DecimalQuantity", i8, i32, i8, i8, i8, i8, i8, i8, %"struct.icu_75::number::impl::Endpoints", %"struct.icu_75::number::impl::Endpoints", %"struct.icu_75::number::impl::Endpoints" }
%"class.icu_75::number::impl::DecimalQuantity" = type <{ %"class.icu_75::IFixedDecimal", i8, [3 x i8], i32, i32, i8, i8, [2 x i8], double, i32, i32, i32, i32, %union.anon, i8, i8, [6 x i8] }>
%"class.icu_75::IFixedDecimal" = type { ptr }
%union.anon = type { %struct.anon.1 }
%struct.anon.1 = type { ptr, i32 }
%"struct.icu_75::number::impl::Endpoints" = type { i32, i32 }
%"struct.icu_75::number::impl::ParsedPatternInfo::ParserState" = type <{ ptr, i32, [4 x i8] }>
%struct.anon = type { i16, [27 x i16] }

@_ZTVN6icu_7513UnicodeStringE = external unnamed_addr constant { [13 x ptr] }, align 8
@_ZTVN6icu_7511ReplaceableE = external unnamed_addr constant { [13 x ptr] }, align 8
@_ZTVN6icu_757UObjectE = external unnamed_addr constant { [5 x ptr] }, align 8

; Function Attrs: mustprogress nounwind uwtable
define linkonce_odr void @_ZN6icu_757UObjectC2Ev(ptr noundef nonnull align 8 dereferenceable(8) %this) unnamed_addr #0 comdat align 2 {
entry:
  %this.addr = alloca ptr, align 8
  store ptr %this, ptr %this.addr, align 8
  %this1 = load ptr, ptr %this.addr, align 8
  store ptr getelementptr inbounds ({ [5 x ptr] }, ptr @_ZTVN6icu_757UObjectE, i32 0, i32 0, i32 2), ptr %this1, align 8
  ret void
}

; Function Attrs: mustprogress nounwind uwtable
define linkonce_odr void @_ZN6icu_7511ReplaceableC2Ev(ptr noundef nonnull align 8 dereferenceable(8) %this) unnamed_addr #0 comdat align 2 {
entry:
  %this.addr = alloca ptr, align 8
  store ptr %this, ptr %this.addr, align 8
  %this1 = load ptr, ptr %this.addr, align 8
  call void @_ZN6icu_757UObjectC2Ev(ptr noundef nonnull align 8 dereferenceable(8) %this1) #8
  store ptr getelementptr inbounds ({ [13 x ptr] }, ptr @_ZTVN6icu_7511ReplaceableE, i32 0, i32 0, i32 2), ptr %this1, align 8
  ret void
}

; Function Attrs: mustprogress uwtable
define linkonce_odr void @_ZN6icu_7513UnicodeStringC2Ev(ptr noundef nonnull align 8 dereferenceable(64) %this) unnamed_addr #1 comdat align 2 {
entry:
  %this.addr = alloca ptr, align 8
  store ptr %this, ptr %this.addr, align 8
  %this1 = load ptr, ptr %this.addr, align 8
  call void @_ZN6icu_7511ReplaceableC2Ev(ptr noundef nonnull align 8 dereferenceable(8) %this1)
  store ptr getelementptr inbounds ({ [13 x ptr] }, ptr @_ZTVN6icu_7513UnicodeStringE, i32 0, i32 0, i32 2), ptr %this1, align 8
  %fUnion2 = getelementptr inbounds %"class.icu_75::UnicodeString", ptr %this1, i32 0, i32 1
  %fLengthAndFlags = getelementptr inbounds %struct.anon, ptr %fUnion2, i32 0, i32 0
  store i16 2, ptr %fLengthAndFlags, align 8
  ret void
}

; Function Attrs: mustprogress nounwind uwtable
define noundef nonnull align 4 dereferenceable(8) ptr @_ZNK6icu_756number4impl17ParsedPatternInfo12getEndpointsEi(ptr noundef nonnull align 8 dereferenceable(433) %this, i32 noundef %flags) #0 align 2 {
entry:
  %retval = alloca ptr, align 8
  %this.addr = alloca ptr, align 8
  %flags.addr = alloca i32, align 4
  %prefix = alloca i8, align 1
  %isNegative = alloca i8, align 1
  %padding = alloca i8, align 1
  store ptr %this, ptr %this.addr, align 8
  store i32 %flags, ptr %flags.addr, align 4
  %this1 = load ptr, ptr %this.addr, align 8
  %0 = load i32, ptr %flags.addr, align 4
  %and = and i32 %0, 256
  %cmp = icmp ne i32 %and, 0
  %frombool = zext i1 %cmp to i8
  store i8 %frombool, ptr %prefix, align 1
  %1 = load i32, ptr %flags.addr, align 4
  %and2 = and i32 %1, 512
  %cmp3 = icmp ne i32 %and2, 0
  %frombool4 = zext i1 %cmp3 to i8
  store i8 %frombool4, ptr %isNegative, align 1
  %2 = load i32, ptr %flags.addr, align 4
  %and5 = and i32 %2, 1024
  %cmp6 = icmp ne i32 %and5, 0
  %frombool7 = zext i1 %cmp6 to i8
  store i8 %frombool7, ptr %padding, align 1
  %3 = load i8, ptr %isNegative, align 1
  %tobool = trunc i8 %3 to i1
  br i1 %tobool, label %land.lhs.true, label %if.else

land.lhs.true:                                    ; preds = %entry
  %4 = load i8, ptr %padding, align 1
  %tobool8 = trunc i8 %4 to i1
  br i1 %tobool8, label %if.then, label %if.else

if.then:                                          ; preds = %land.lhs.true
  %negative = getelementptr inbounds %"struct.icu_75::number::impl::ParsedPatternInfo", ptr %this1, i32 0, i32 3
  %paddingEndpoints = getelementptr inbounds %"struct.icu_75::number::impl::ParsedSubpatternInfo", ptr %negative, i32 0, i32 24
  store ptr %paddingEndpoints, ptr %retval, align 8
  br label %return

if.else:                                          ; preds = %land.lhs.true, %entry
  %5 = load i8, ptr %padding, align 1
  %tobool9 = trunc i8 %5 to i1
  br i1 %tobool9, label %if.then10, label %if.else12

if.then10:                                        ; preds = %if.else
  %positive = getelementptr inbounds %"struct.icu_75::number::impl::ParsedPatternInfo", ptr %this1, i32 0, i32 2
  %paddingEndpoints11 = getelementptr inbounds %"struct.icu_75::number::impl::ParsedSubpatternInfo", ptr %positive, i32 0, i32 24
  store ptr %paddingEndpoints11, ptr %retval, align 8
  br label %return

if.else12:                                        ; preds = %if.else
  %6 = load i8, ptr %prefix, align 1
  %tobool13 = trunc i8 %6 to i1
  br i1 %tobool13, label %land.lhs.true14, label %if.else18

land.lhs.true14:                                  ; preds = %if.else12
  %7 = load i8, ptr %isNegative, align 1
  %tobool15 = trunc i8 %7 to i1
  br i1 %tobool15, label %if.then16, label %if.else18

if.then16:                                        ; preds = %land.lhs.true14
  %negative17 = getelementptr inbounds %"struct.icu_75::number::impl::ParsedPatternInfo", ptr %this1, i32 0, i32 3
  %prefixEndpoints = getelementptr inbounds %"struct.icu_75::number::impl::ParsedSubpatternInfo", ptr %negative17, i32 0, i32 22
  store ptr %prefixEndpoints, ptr %retval, align 8
  br label %return

if.else18:                                        ; preds = %land.lhs.true14, %if.else12
  %8 = load i8, ptr %prefix, align 1
  %tobool19 = trunc i8 %8 to i1
  br i1 %tobool19, label %if.then20, label %if.else23

if.then20:                                        ; preds = %if.else18
  %positive21 = getelementptr inbounds %"struct.icu_75::number::impl::ParsedPatternInfo", ptr %this1, i32 0, i32 2
  %prefixEndpoints22 = getelementptr inbounds %"struct.icu_75::number::impl::ParsedSubpatternInfo", ptr %positive21, i32 0, i32 22
  store ptr %prefixEndpoints22, ptr %retval, align 8
  br label %return

if.else23:                                        ; preds = %if.else18
  %9 = load i8, ptr %isNegative, align 1
  %tobool24 = trunc i8 %9 to i1
  br i1 %tobool24, label %if.then25, label %if.else27

if.then25:                                        ; preds = %if.else23
  %negative26 = getelementptr inbounds %"struct.icu_75::number::impl::ParsedPatternInfo", ptr %this1, i32 0, i32 3
  %suffixEndpoints = getelementptr inbounds %"struct.icu_75::number::impl::ParsedSubpatternInfo", ptr %negative26, i32 0, i32 23
  store ptr %suffixEndpoints, ptr %retval, align 8
  br label %return

if.else27:                                        ; preds = %if.else23
  %positive28 = getelementptr inbounds %"struct.icu_75::number::impl::ParsedPatternInfo", ptr %this1, i32 0, i32 2
  %suffixEndpoints29 = getelementptr inbounds %"struct.icu_75::number::impl::ParsedSubpatternInfo", ptr %positive28, i32 0, i32 23
  store ptr %suffixEndpoints29, ptr %retval, align 8
  br label %return

return:                                           ; preds = %if.else27, %if.then25, %if.then20, %if.then16, %if.then10, %if.then
  %10 = load ptr, ptr %retval, align 8
  ret ptr %10
}

; Function Attrs: mustprogress uwtable
define void @_ZNK6icu_756number4impl17ParsedPatternInfo9getStringEi(ptr noalias sret(%"class.icu_75::UnicodeString") align 8 %agg.result, ptr noundef nonnull align 8 dereferenceable(433) %this, i32 noundef %flags) unnamed_addr #1 align 2 {
entry:
  %result.ptr = alloca ptr, align 8
  %this.addr = alloca ptr, align 8
  %flags.addr = alloca i32, align 4
  %endpoints = alloca ptr, align 8
  store ptr %agg.result, ptr %result.ptr, align 8
  store ptr %this, ptr %this.addr, align 8
  store i32 %flags, ptr %flags.addr, align 4
  %this1 = load ptr, ptr %this.addr, align 8
  %0 = load i32, ptr %flags.addr, align 4
  %call = call noundef nonnull align 4 dereferenceable(8) ptr @_ZNK6icu_756number4impl17ParsedPatternInfo12getEndpointsEi(ptr noundef nonnull align 8 dereferenceable(433) %this1, i32 noundef %0)
  store ptr %call, ptr %endpoints, align 8
  %1 = load ptr, ptr %endpoints, align 8
  %start = getelementptr inbounds %"struct.icu_75::number::impl::Endpoints", ptr %1, i32 0, i32 0
  %2 = load i32, ptr %start, align 4
  %3 = load ptr, ptr %endpoints, align 8
  %end = getelementptr inbounds %"struct.icu_75::number::impl::Endpoints", ptr %3, i32 0, i32 1
  %4 = load i32, ptr %end, align 4
  %cmp = icmp eq i32 %2, %4
  br i1 %cmp, label %if.then, label %if.end

if.then:                                          ; preds = %entry
  call void @_ZN6icu_7513UnicodeStringC2Ev(ptr noundef nonnull align 8 dereferenceable(64) %agg.result)
  br label %return

if.end:                                           ; preds = %entry
  %pattern = getelementptr inbounds %"struct.icu_75::number::impl::ParsedPatternInfo", ptr %this1, i32 0, i32 1
  %5 = load ptr, ptr %endpoints, align 8
  %start2 = getelementptr inbounds %"struct.icu_75::number::impl::Endpoints", ptr %5, i32 0, i32 0
  %6 = load i32, ptr %start2, align 4
  %7 = load ptr, ptr %endpoints, align 8
  %end3 = getelementptr inbounds %"struct.icu_75::number::impl::Endpoints", ptr %7, i32 0, i32 1
  %8 = load i32, ptr %end3, align 4
  %9 = load ptr, ptr %endpoints, align 8
  %start4 = getelementptr inbounds %"struct.icu_75::number::impl::Endpoints", ptr %9, i32 0, i32 0
  %10 = load i32, ptr %start4, align 4
  %sub = sub nsw i32 %8, %10
  call void @_ZN6icu_7513UnicodeStringC1ERKS0_ii(ptr noundef nonnull align 8 dereferenceable(64) %agg.result, ptr noundef nonnull align 8 dereferenceable(64) %pattern, i32 noundef %6, i32 noundef %sub)
  br label %return

return:                                           ; preds = %if.end, %if.then
  ret void
}