; Function Attrs: mustprogress uwtable
define void @_ZNK6icu_756number4impl17ParsedPatternInfo9getStringEi(ptr noalias sret(%"class.icu_75::UnicodeString") align 8 %agg.result, ptr noundef nonnull align 8 dereferenceable(433) %this, i32 noundef %flags) unnamed_addr #1 align 2 {
entry:
  %and.i = and i32 %flags, 256
  %cmp.not.i = icmp eq i32 %and.i, 0
  %and2.i = and i32 %flags, 512
  %cmp3.not.i = icmp eq i32 %and2.i, 0
  %0 = and i32 %flags, 1536
  %brmerge.not.i = icmp eq i32 %0, 1536
  br i1 %brmerge.not.i, label %_ZNK6icu_756number4impl17ParsedPatternInfo12getEndpointsEi.exit, label %if.else.i

if.else.i:                                        ; preds = %entry
  %and5.i = and i32 %flags, 1024
  %cmp6.not.i = icmp eq i32 %and5.i, 0
  br i1 %cmp6.not.i, label %if.else12.i, label %_ZNK6icu_756number4impl17ParsedPatternInfo12getEndpointsEi.exit

if.else12.i:                                      ; preds = %if.else.i
  %1 = and i32 %flags, 768
  %brmerge7.not.i = icmp eq i32 %1, 768
  br i1 %brmerge7.not.i, label %_ZNK6icu_756number4impl17ParsedPatternInfo12getEndpointsEi.exit, label %if.else18.i

if.else18.i:                                      ; preds = %if.else12.i
  %..i = select i1 %cmp3.not.i, i64 224, i64 392
  %spec.select.i = select i1 %cmp.not.i, i64 %..i, i64 216
  br label %_ZNK6icu_756number4impl17ParsedPatternInfo12getEndpointsEi.exit

_ZNK6icu_756number4impl17ParsedPatternInfo12getEndpointsEi.exit: ; preds = %entry, %if.else.i, %if.else12.i, %if.else18.i
  %.sink.i = phi i64 [ 400, %entry ], [ 232, %if.else.i ], [ 384, %if.else12.i ], [ %spec.select.i, %if.else18.i ]
  %suffixEndpoints29.i = getelementptr inbounds i8, ptr %this, i64 %.sink.i
  %2 = load i32, ptr %suffixEndpoints29.i, align 4
  %end = getelementptr inbounds i8, ptr %suffixEndpoints29.i, i64 4
  %3 = load i32, ptr %end, align 4
  %cmp = icmp eq i32 %2, %3
  br i1 %cmp, label %if.then, label %if.end

if.then:                                          ; preds = %_ZNK6icu_756number4impl17ParsedPatternInfo12getEndpointsEi.exit
  store ptr getelementptr inbounds ({ [13 x ptr] }, ptr @_ZTVN6icu_7513UnicodeStringE, i64 0, i32 0, i64 2), ptr %agg.result, align 8
  %fUnion2.i = getelementptr inbounds i8, ptr %agg.result, i64 8
  store i16 2, ptr %fUnion2.i, align 8
  br label %return

if.end:                                           ; preds = %_ZNK6icu_756number4impl17ParsedPatternInfo12getEndpointsEi.exit
  %pattern = getelementptr inbounds i8, ptr %this, i64 8
  %sub = sub nsw i32 %3, %2
  tail call void @_ZN6icu_7513UnicodeStringC1ERKS0_ii(ptr noundef nonnull align 8 dereferenceable(64) %agg.result, ptr noundef nonnull align 8 dereferenceable(64) %pattern, i32 noundef %2, i32 noundef %sub)
  br label %return

return:                                           ; preds = %if.end, %if.then
  ret void
}